target datalayout = "e-m:e-p270:32:32-p271:32:32-p272:64:64-i64:64-i128:128-f80:128-n8:16:32:64-S128"
target triple = "x86_64-pc-linux-gnu"

%"class.lean::mpz" = type { [1 x %struct.__mpz_struct] }
%struct.__mpz_struct = type { i32, i32, ptr }

@_ZN4lean3mpzC1Ej = unnamed_addr alias void (ptr, i32), ptr @_ZN4lean3mpzC2Ej
@_ZN4lean3mpzD1Ev = unnamed_addr alias void (ptr), ptr @_ZN4lean3mpzD2Ev

; Function Attrs: mustprogress nounwind uwtable
define void @_ZN4lean3mpzD2Ev(ptr noundef nonnull align 8 dereferenceable(16) %0) unnamed_addr #0 align 2 personality ptr @__gxx_personality_v0 {
  %2 = alloca ptr, align 8
  store ptr %0, ptr %2, align 8, !tbaa !3
  %3 = load ptr, ptr %2, align 8
  %4 = getelementptr inbounds nuw %"class.lean::mpz", ptr %3, i32 0, i32 0
  %5 = getelementptr inbounds [1 x %struct.__mpz_struct], ptr %4, i64 0, i64 0
  invoke void @__gmpz_clear(ptr noundef %5)
          to label %6 unwind label %7

6:                                                ; preds = %1
  ret void

7:                                                ; preds = %1
  %8 = landingpad { ptr, i32 }
          catch ptr null
  %9 = extractvalue { ptr, i32 } %8, 0
  call void @__clang_call_terminate(ptr %9) #18
  unreachable
}

; Function Attrs: mustprogress uwtable
define void @_ZN4lean3mpzC2Ej(ptr noundef nonnull align 8 dereferenceable(16) %0, i32 noundef %1) unnamed_addr #2 align 2 {
  %3 = alloca ptr, align 8
  %4 = alloca i32, align 4
  store ptr %0, ptr %3, align 8, !tbaa !3
  store i32 %1, ptr %4, align 4, !tbaa !11
  %5 = load ptr, ptr %3, align 8
  %6 = getelementptr inbounds nuw %"class.lean::mpz", ptr %5, i32 0, i32 0
  %7 = getelementptr inbounds [1 x %struct.__mpz_struct], ptr %6, i64 0, i64 0
  %8 = load i32, ptr %4, align 4, !tbaa !11
  %9 = zext i32 %8 to i64
  call void @__gmpz_init_set_ui(ptr noundef %7, i64 noundef %9)
  ret void
}

; Function Attrs: mustprogress uwtable
define void @_ZN4lean3mpzC2Em(ptr noundef nonnull align 8 dereferenceable(16) %0, i64 noundef %1) unnamed_addr #2 align 2 personality ptr @__gxx_personality_v0 {
  %3 = alloca ptr, align 8
  %4 = alloca i64, align 8
  %5 = alloca %"class.lean::mpz", align 8
  %6 = alloca ptr, align 8
  %7 = alloca i32, align 4
  store ptr %0, ptr %3, align 8, !tbaa !3
  store i64 %1, ptr %4, align 8, !tbaa !13
  %8 = load ptr, ptr %3, align 8
  %9 = load i64, ptr %4, align 8, !tbaa !13
  %10 = trunc i64 %9 to i32
  call void @_ZN4lean3mpzC2Ej(ptr noundef nonnull align 8 dereferenceable(16) %8, i32 noundef %10)
  call void @llvm.lifetime.start.p0(i64 16, ptr %5) #17
  %11 = load i64, ptr %4, align 8, !tbaa !13
  %12 = lshr i64 %11, 32
  %13 = trunc i64 %12 to i32
  invoke void @_ZN4lean3mpzC1Ej(ptr noundef nonnull align 8 dereferenceable(16) %5, i32 noundef %13)
          to label %14 unwind label %27

14:                                               ; preds = %2
  %15 = getelementptr inbounds nuw %"class.lean::mpz", ptr %5, i32 0, i32 0
  %16 = getelementptr inbounds [1 x %struct.__mpz_struct], ptr %15, i64 0, i64 0
  %17 = getelementptr inbounds nuw %"class.lean::mpz", ptr %5, i32 0, i32 0
  %18 = getelementptr inbounds [1 x %struct.__mpz_struct], ptr %17, i64 0, i64 0
  invoke void @__gmpz_mul_2exp(ptr noundef %16, ptr noundef %18, i64 noundef 32)
          to label %19 unwind label %31

19:                                               ; preds = %14
  %20 = getelementptr inbounds nuw %"class.lean::mpz", ptr %8, i32 0, i32 0
  %21 = getelementptr inbounds [1 x %struct.__mpz_struct], ptr %20, i64 0, i64 0
  %22 = getelementptr inbounds nuw %"class.lean::mpz", ptr %8, i32 0, i32 0
  %23 = getelementptr inbounds [1 x %struct.__mpz_struct], ptr %22, i64 0, i64 0
  %24 = getelementptr inbounds nuw %"class.lean::mpz", ptr %5, i32 0, i32 0
  %25 = getelementptr inbounds [1 x %struct.__mpz_struct], ptr %24, i64 0, i64 0
  invoke void @__gmpz_add(ptr noundef %21, ptr noundef %23, ptr noundef %25)
          to label %26 unwind label %31

26:                                               ; preds = %19
  call void @_ZN4lean3mpzD1Ev(ptr noundef nonnull align 8 dereferenceable(16) %5) #17
  call void @llvm.lifetime.end.p0(i64 16, ptr %5) #17
  ret void

27:                                               ; preds = %2
  %28 = landingpad { ptr, i32 }
          cleanup
  %29 = extractvalue { ptr, i32 } %28, 0
  store ptr %29, ptr %6, align 8
  %30 = extractvalue { ptr, i32 } %28, 1
  store i32 %30, ptr %7, align 4
  br label %35

31:                                               ; preds = %19, %14
  %32 = landingpad { ptr, i32 }
          cleanup
  %33 = extractvalue { ptr, i32 } %32, 0
  store ptr %33, ptr %6, align 8
  %34 = extractvalue { ptr, i32 } %32, 1
  store i32 %34, ptr %7, align 4
  call void @_ZN4lean3mpzD1Ev(ptr noundef nonnull align 8 dereferenceable(16) %5) #17
  br label %35

35:                                               ; preds = %31, %27
  call void @llvm.lifetime.end.p0(i64 16, ptr %5) #17
  call void @_ZN4lean3mpzD2Ev(ptr noundef nonnull align 8 dereferenceable(16) %8) #17
  br label %36

36:                                               ; preds = %35
  %37 = load ptr, ptr %6, align 8
  %38 = load i32, ptr %7, align 4
  %39 = insertvalue { ptr, i32 } poison, ptr %37, 0
  %40 = insertvalue { ptr, i32 } %39, i32 %38, 1
  resume { ptr, i32 } %40
}