; Function Attrs: mustprogress uwtable
define void @_ZN4lean3mpzC2Em(ptr noundef nonnull align 8 dereferenceable(16) %0, i64 noundef %1) unnamed_addr #2 align 2 personality ptr @__gxx_personality_v0 {
  %3 = alloca %"class.lean::mpz", align 8
  %4 = and i64 %1, 4294967295
  tail call void @__gmpz_init_set_ui(ptr noundef nonnull align 8 dereferenceable(16) %0, i64 noundef %4)
  call void @llvm.lifetime.start.p0(i64 16, ptr nonnull %3) #18
  %5 = lshr i64 %1, 32
  %6 = trunc nuw i64 %5 to i32
  invoke void @_ZN4lean3mpzC1Ej(ptr noundef nonnull align 8 dereferenceable(16) %3, i32 noundef %6)
          to label %7 unwind label %10

7:                                                ; preds = %2
  invoke void @__gmpz_mul_2exp(ptr noundef nonnull %3, ptr noundef nonnull %3, i64 noundef 32)
          to label %8 unwind label %12

8:                                                ; preds = %7
  invoke void @__gmpz_add(ptr noundef nonnull %0, ptr noundef nonnull %0, ptr noundef nonnull %3)
          to label %9 unwind label %12

9:                                                ; preds = %8
  call void @_ZN4lean3mpzD1Ev(ptr noundef nonnull align 8 dereferenceable(16) %3) #18
  call void @llvm.lifetime.end.p0(i64 16, ptr nonnull %3) #18
  ret void

10:                                               ; preds = %2
  %11 = landingpad { ptr, i32 }
          cleanup
  br label %14

12:                                               ; preds = %8, %7
  %13 = landingpad { ptr, i32 }
          cleanup
  call void @_ZN4lean3mpzD1Ev(ptr noundef nonnull align 8 dereferenceable(16) %3) #18
  br label %14

14:                                               ; preds = %12, %10
  %.pn = phi { ptr, i32 } [ %13, %12 ], [ %11, %10 ]
  call void @llvm.lifetime.end.p0(i64 16, ptr nonnull %3) #18
  invoke void @__gmpz_clear(ptr noundef nonnull align 8 dereferenceable(16) %0)
          to label %_ZN4lean3mpzD2Ev.exit unwind label %15

15:                                               ; preds = %14
  %16 = landingpad { ptr, i32 }
          catch ptr null
  %17 = extractvalue { ptr, i32 } %16, 0
  call void @__clang_call_terminate(ptr %17) #19
  unreachable

_ZN4lean3mpzD2Ev.exit:                            ; preds = %14
  resume { ptr, i32 } %.pn
}